target datalayout = "e-m:e-p270:32:32-p271:32:32-p272:64:64-i64:64-i128:128-f80:128-n8:16:32:64-S128"
target triple = "x86_64-pc-linux-gnu"

%class.anon = type { i8 }

@rgb_to_xyz = hidden global [3 x [3 x double]] zeroinitializer, align 16
@xyz_whitepoint = hidden global [3 x double] zeroinitializer, align 16

; Function Attrs: mustprogress nounwind uwtable
define internal noundef double @"_ZZ7cie_labPdENK3$_0clEd"(ptr noundef nonnull align 1 dereferenceable(1) %0, double noundef %1) #0 align 2 {
  %3 = alloca double, align 8
  %4 = alloca ptr, align 8
  %5 = alloca double, align 8
  %6 = alloca double, align 8
  store ptr %0, ptr %4, align 8
  store double %1, ptr %5, align 8
  store double 0x3FCA7B9611A7B961, ptr %6, align 8
  %7 = load double, ptr %5, align 8
  %8 = load double, ptr %6, align 8
  %9 = load double, ptr %6, align 8
  %10 = fmul contract double %8, %9
  %11 = load double, ptr %6, align 8
  %12 = fmul contract double %10, %11
  %13 = fcmp contract ogt double %7, %12
  br i1 %13, label %14, label %17

14:                                               ; preds = %2
  %15 = load double, ptr %5, align 8
  %16 = call contract double @cbrt(double noundef %15) #16
  store double %16, ptr %3, align 8
  br label %25

17:                                               ; preds = %2
  %18 = load double, ptr %5, align 8
  %19 = load double, ptr %6, align 8
  %20 = load double, ptr %6, align 8
  %21 = fmul contract double %19, %20
  %22 = fmul contract double %21, 3.000000e+00
  %23 = fdiv contract double %18, %22
  %24 = fadd contract double %23, 0x3FC1A7B9611A7B96
  store double %24, ptr %3, align 8
  br label %25

25:                                               ; preds = %17, %14
  %26 = load double, ptr %3, align 8
  ret double %26
}

; Function Attrs: mustprogress uwtable
define hidden void @_Z7cie_labPd(ptr noundef %0) #2 {
  %2 = alloca ptr, align 8
  %3 = alloca double, align 8
  %4 = alloca double, align 8
  %5 = alloca double, align 8
  %6 = alloca double, align 8
  %7 = alloca double, align 8
  %8 = alloca double, align 8
  %9 = alloca i32, align 4
  %10 = alloca %class.anon, align 1
  store ptr %0, ptr %2, align 8
  store double 0.000000e+00, ptr %3, align 8
  store double 0.000000e+00, ptr %4, align 8
  store double 0.000000e+00, ptr %5, align 8
  %11 = load double, ptr @xyz_whitepoint, align 16
  store double %11, ptr %6, align 8
  %12 = load double, ptr getelementptr inbounds ([3 x double], ptr @xyz_whitepoint, i64 0, i64 1), align 8
  store double %12, ptr %7, align 8
  %13 = load double, ptr getelementptr inbounds ([3 x double], ptr @xyz_whitepoint, i64 0, i64 2), align 16
  store double %13, ptr %8, align 8
  store i32 0, ptr %9, align 4
  br label %14

14:                                               ; preds = %54, %1
  %15 = load i32, ptr %9, align 4
  %16 = icmp slt i32 %15, 3
  br i1 %16, label %17, label %57

17:                                               ; preds = %14
  %18 = load ptr, ptr %2, align 8
  %19 = load i32, ptr %9, align 4
  %20 = sext i32 %19 to i64
  %21 = getelementptr inbounds double, ptr %18, i64 %20
  %22 = load double, ptr %21, align 8
  %23 = load i32, ptr %9, align 4
  %24 = sext i32 %23 to i64
  %25 = getelementptr inbounds [3 x double], ptr @rgb_to_xyz, i64 0, i64 %24
  %26 = load double, ptr %25, align 8
  %27 = fmul contract double %22, %26
  %28 = load double, ptr %3, align 8
  %29 = fadd contract double %28, %27
  store double %29, ptr %3, align 8
  %30 = load ptr, ptr %2, align 8
  %31 = load i32, ptr %9, align 4
  %32 = sext i32 %31 to i64
  %33 = getelementptr inbounds double, ptr %30, i64 %32
  %34 = load double, ptr %33, align 8
  %35 = load i32, ptr %9, align 4
  %36 = sext i32 %35 to i64
  %37 = getelementptr inbounds [3 x double], ptr getelementptr inbounds ([3 x [3 x double]], ptr @rgb_to_xyz, i64 0, i64 1), i64 0, i64 %36
  %38 = load double, ptr %37, align 8
  %39 = fmul contract double %34, %38
  %40 = load double, ptr %4, align 8
  %41 = fadd contract double %40, %39
  store double %41, ptr %4, align 8
  %42 = load ptr, ptr %2, align 8
  %43 = load i32, ptr %9, align 4
  %44 = sext i32 %43 to i64
  %45 = getelementptr inbounds double, ptr %42, i64 %44
  %46 = load double, ptr %45, align 8
  %47 = load i32, ptr %9, align 4
  %48 = sext i32 %47 to i64
  %49 = getelementptr inbounds [3 x double], ptr getelementptr inbounds ([3 x [3 x double]], ptr @rgb_to_xyz, i64 0, i64 2), i64 0, i64 %48
  %50 = load double, ptr %49, align 8
  %51 = fmul contract double %46, %50
  %52 = load double, ptr %5, align 8
  %53 = fadd contract double %52, %51
  store double %53, ptr %5, align 8
  br label %54

54:                                               ; preds = %17
  %55 = load i32, ptr %9, align 4
  %56 = add nsw i32 %55, 1
  store i32 %56, ptr %9, align 4
  br label %14, !llvm.loop !16

57:                                               ; preds = %14
  %58 = load double, ptr %4, align 8
  %59 = load double, ptr %7, align 8
  %60 = fdiv contract double %58, %59
  %61 = call contract noundef double @"_ZZ7cie_labPdENK3$_0clEd"(ptr noundef nonnull align 1 dereferenceable(1) %10, double noundef %60)
  %62 = fmul contract double 1.160000e+02, %61
  %63 = fsub contract double %62, 1.600000e+01
  %64 = load ptr, ptr %2, align 8
  %65 = getelementptr inbounds double, ptr %64, i64 0
  store double %63, ptr %65, align 8
  %66 = load double, ptr %3, align 8
  %67 = load double, ptr %6, align 8
  %68 = fdiv contract double %66, %67
  %69 = call contract noundef double @"_ZZ7cie_labPdENK3$_0clEd"(ptr noundef nonnull align 1 dereferenceable(1) %10, double noundef %68)
  %70 = load double, ptr %4, align 8
  %71 = load double, ptr %7, align 8
  %72 = fdiv contract double %70, %71
  %73 = call contract noundef double @"_ZZ7cie_labPdENK3$_0clEd"(ptr noundef nonnull align 1 dereferenceable(1) %10, double noundef %72)
  %74 = fsub contract double %69, %73
  %75 = fmul contract double 5.000000e+02, %74
  %76 = load ptr, ptr %2, align 8
  %77 = getelementptr inbounds double, ptr %76, i64 1
  store double %75, ptr %77, align 8
  %78 = load double, ptr %4, align 8
  %79 = load double, ptr %7, align 8
  %80 = fdiv contract double %78, %79
  %81 = call contract noundef double @"_ZZ7cie_labPdENK3$_0clEd"(ptr noundef nonnull align 1 dereferenceable(1) %10, double noundef %80)
  %82 = load double, ptr %5, align 8
  %83 = load double, ptr %8, align 8
  %84 = fdiv contract double %82, %83
  %85 = call contract noundef double @"_ZZ7cie_labPdENK3$_0clEd"(ptr noundef nonnull align 1 dereferenceable(1) %10, double noundef %84)
  %86 = fsub contract double %81, %85
  %87 = fmul contract double 2.000000e+02, %86
  %88 = load ptr, ptr %2, align 8
  %89 = getelementptr inbounds double, ptr %88, i64 2
  store double %87, ptr %89, align 8
  ret void
}