; Function Attrs: mustprogress nofree nosync nounwind memory(read, argmem: readwrite, inaccessiblemem: none) uwtable
define hidden void @_Z7cie_labPd(ptr nocapture noundef %0) local_unnamed_addr #5 {
  %2 = load double, ptr @xyz_whitepoint, align 16
  %3 = load double, ptr getelementptr inbounds ([3 x double], ptr @xyz_whitepoint, i64 0, i64 1), align 8
  %4 = load double, ptr getelementptr inbounds ([3 x double], ptr @xyz_whitepoint, i64 0, i64 2), align 16
  br label %5

5:                                                ; preds = %1, %5
  %indvars.iv = phi i64 [ 0, %1 ], [ %indvars.iv.next, %5 ]
  %.02640 = phi double [ 0.000000e+00, %1 ], [ %11, %5 ]
  %.02739 = phi double [ 0.000000e+00, %1 ], [ %15, %5 ]
  %.02838 = phi double [ 0.000000e+00, %1 ], [ %19, %5 ]
  %6 = getelementptr inbounds double, ptr %0, i64 %indvars.iv
  %7 = load double, ptr %6, align 8
  %8 = getelementptr inbounds [3 x double], ptr @rgb_to_xyz, i64 0, i64 %indvars.iv
  %9 = load double, ptr %8, align 8
  %10 = fmul contract double %7, %9
  %11 = fadd contract double %.02640, %10
  %12 = getelementptr inbounds [3 x [3 x double]], ptr @rgb_to_xyz, i64 0, i64 1, i64 %indvars.iv
  %13 = load double, ptr %12, align 8
  %14 = fmul contract double %7, %13
  %15 = fadd contract double %.02739, %14
  %16 = getelementptr inbounds [3 x [3 x double]], ptr @rgb_to_xyz, i64 0, i64 2, i64 %indvars.iv
  %17 = load double, ptr %16, align 8
  %18 = fmul contract double %7, %17
  %19 = fadd contract double %.02838, %18
  %indvars.iv.next = add nuw nsw i64 %indvars.iv, 1
  %exitcond.not = icmp eq i64 %indvars.iv.next, 3
  br i1 %exitcond.not, label %20, label %5, !llvm.loop !16

20:                                               ; preds = %5
  %21 = fdiv contract double %15, %3
  %22 = fcmp contract ogt double %21, 0x3F822354D28F7CD6
  br i1 %22, label %23, label %25

23:                                               ; preds = %20
  %24 = tail call contract double @cbrt(double noundef %21) #25
  br label %"_ZZ7cie_labPdENK3$_0clEd.exit"

25:                                               ; preds = %20
  %26 = fdiv contract double %21, 0x3FC07004DED20922
  %27 = fadd contract double %26, 0x3FC1A7B9611A7B96
  br label %"_ZZ7cie_labPdENK3$_0clEd.exit"

"_ZZ7cie_labPdENK3$_0clEd.exit":                  ; preds = %23, %25
  %.0.i = phi double [ %24, %23 ], [ %27, %25 ]
  %28 = fmul contract double %.0.i, 1.160000e+02
  %29 = fadd contract double %28, -1.600000e+01
  store double %29, ptr %0, align 8
  %30 = fdiv contract double %11, %2
  %31 = fcmp contract ogt double %30, 0x3F822354D28F7CD6
  br i1 %31, label %32, label %34

32:                                               ; preds = %"_ZZ7cie_labPdENK3$_0clEd.exit"
  %33 = tail call contract double @cbrt(double noundef %30) #25
  br label %"_ZZ7cie_labPdENK3$_0clEd.exit30"

34:                                               ; preds = %"_ZZ7cie_labPdENK3$_0clEd.exit"
  %35 = fdiv contract double %30, 0x3FC07004DED20922
  %36 = fadd contract double %35, 0x3FC1A7B9611A7B96
  br label %"_ZZ7cie_labPdENK3$_0clEd.exit30"

"_ZZ7cie_labPdENK3$_0clEd.exit30":                ; preds = %32, %34
  %.0.i29 = phi double [ %33, %32 ], [ %36, %34 ]
  br i1 %22, label %37, label %39

37:                                               ; preds = %"_ZZ7cie_labPdENK3$_0clEd.exit30"
  %38 = tail call contract double @cbrt(double noundef %21) #25
  br label %"_ZZ7cie_labPdENK3$_0clEd.exit34"

39:                                               ; preds = %"_ZZ7cie_labPdENK3$_0clEd.exit30"
  %40 = fdiv contract double %21, 0x3FC07004DED20922
  %41 = fadd contract double %40, 0x3FC1A7B9611A7B96
  br label %"_ZZ7cie_labPdENK3$_0clEd.exit34"

"_ZZ7cie_labPdENK3$_0clEd.exit34":                ; preds = %37, %39
  %.0.i33 = phi double [ %38, %37 ], [ %41, %39 ]
  %.sink.in = fsub contract double %.0.i29, %.0.i33
  %.sink = fmul contract double %.sink.in, 5.000000e+02
  %42 = getelementptr inbounds i8, ptr %0, i64 8
  store double %.sink, ptr %42, align 8
  %43 = fdiv contract double %19, %4
  %44 = fcmp contract ogt double %43, 0x3F822354D28F7CD6
  br i1 %44, label %45, label %47

45:                                               ; preds = %"_ZZ7cie_labPdENK3$_0clEd.exit34"
  %46 = tail call contract double @cbrt(double noundef %43) #25
  br label %"_ZZ7cie_labPdENK3$_0clEd.exit36"

47:                                               ; preds = %"_ZZ7cie_labPdENK3$_0clEd.exit34"
  %48 = fdiv contract double %43, 0x3FC07004DED20922
  %49 = fadd contract double %48, 0x3FC1A7B9611A7B96
  br label %"_ZZ7cie_labPdENK3$_0clEd.exit36"

"_ZZ7cie_labPdENK3$_0clEd.exit36":                ; preds = %45, %47
  %.0.i35 = phi double [ %46, %45 ], [ %49, %47 ]
  %50 = fsub contract double %.0.i33, %.0.i35
  %51 = fmul contract double %50, 2.000000e+02
  %52 = getelementptr inbounds i8, ptr %0, i64 16
  store double %51, ptr %52, align 8
  ret void
}